(dp1
S'010'
p2
I3260818986099
sS'011'
p3
I27521126125495
sS'1111'
p4
I13556915997810
sS'1110'
p5
I4878143114631
sS'001'
p6
I8624329680447
sS'000'
p7
I27393963576224
sS'110'
p8
I7297725844815
sS'10'
p9
I25375292126844
s.I32
.I7
.(lp1
S' '
aV\u2008
a.