(dp1
S'0011'
p2
I327015
sS'0010'
p3
I450052
sS'010'
p4
I113053
sS'011'
p5
I610415
sS'000'
p6
I13950
sS'111'
p7
I76443
sS'110'
p8
I740713
sS'100'
p9
I769234
sS'1010'
p10
I592157
sS'10110'
p11
I236142
sS'10111'
p12
I154750
s.I64
.