(dp1
S'00'
p2
I11870668832098
sS'010'
p3
I12396961974318
sS'011'
p4
I18122592156024
sS'111'
p5
I14779421276831
sS'110'
p6
I14532273865280
sS'100'
p7
I625506916736
sS'101'
p8
I17729677186085
s.I22
.I15155
.